target datalayout = "e-m:e-p270:32:32-p271:32:32-p272:64:64-i64:64-i128:128-f80:128-n8:16:32:64-S128"
target triple = "x86_64-pc-linux-gnu"

%struct.lxb_html_tree = type { ptr, ptr, ptr, ptr, ptr, ptr, ptr, %struct.lxb_html_tree_pending_table_t, ptr, i8, i8, i8, i8, i8, i8, ptr, ptr, ptr, i32, i64 }
%struct.lxb_html_tree_pending_table_t = type { ptr, i8 }
%struct.lxb_html_token_t = type { ptr, ptr, i64, i64, ptr, ptr, ptr, ptr, ptr, i64, i64, i32 }
%struct.lexbor_array_t = type { ptr, i64, i64 }
%struct.lxb_dom_node = type { %struct.lxb_dom_event_target, i64, i64, i64, ptr, ptr, ptr, ptr, ptr, ptr, ptr, i32, i64 }
%struct.lxb_dom_event_target = type { ptr }

; Function Attrs: inlinehint nounwind uwtable
define internal zeroext i1 @lxb_html_tag_is_category(i64 noundef %0, i64 noundef %1, i32 noundef %2) #3 {
  %4 = alloca i1, align 1
  %5 = alloca i64, align 8
  %6 = alloca i64, align 8
  %7 = alloca i32, align 4
  store i64 %0, ptr %5, align 8, !tbaa !50
  store i64 %1, ptr %6, align 8, !tbaa !50
  store i32 %2, ptr %7, align 4, !tbaa !85
  %8 = load i64, ptr %5, align 8, !tbaa !50
  %9 = icmp ult i64 %8, 196
  br i1 %9, label %10, label %22

10:                                               ; preds = %3
  %11 = load i64, ptr %6, align 8, !tbaa !50
  %12 = icmp ult i64 %11, 8
  br i1 %12, label %13, label %22

13:                                               ; preds = %10
  %14 = load i64, ptr %5, align 8, !tbaa !50
  %15 = getelementptr inbounds nuw [196 x [8 x i32]], ptr @lxb_html_tag_res_cats, i64 0, i64 %14
  %16 = load i64, ptr %6, align 8, !tbaa !50
  %17 = getelementptr inbounds nuw [8 x i32], ptr %15, i64 0, i64 %16
  %18 = load i32, ptr %17, align 4, !tbaa !85
  %19 = load i32, ptr %7, align 4, !tbaa !85
  %20 = and i32 %18, %19
  %21 = icmp ne i32 %20, 0
  store i1 %21, ptr %4, align 1
  br label %26

22:                                               ; preds = %10, %3
  %23 = load i32, ptr %7, align 4, !tbaa !85
  %24 = and i32 129, %23
  %25 = icmp ne i32 %24, 0
  store i1 %25, ptr %4, align 1
  br label %26

26:                                               ; preds = %22, %13
  %27 = load i1, ptr %4, align 1
  ret i1 %27
}

; Function Attrs: inlinehint nounwind uwtable
define internal ptr @lxb_html_tree_current_node(ptr noundef %0) #3 {
  %2 = alloca ptr, align 8
  %3 = alloca ptr, align 8
  store ptr %0, ptr %3, align 8, !tbaa !4
  %4 = load ptr, ptr %3, align 8, !tbaa !4
  %5 = getelementptr inbounds nuw %struct.lxb_html_tree, ptr %4, i32 0, i32 4
  %6 = load ptr, ptr %5, align 8, !tbaa !44
  %7 = getelementptr inbounds nuw %struct.lexbor_array_t, ptr %6, i32 0, i32 2
  %8 = load i64, ptr %7, align 8, !tbaa !49
  %9 = icmp eq i64 %8, 0
  br i1 %9, label %10, label %11

10:                                               ; preds = %1
  store ptr null, ptr %2, align 8
  br label %25

11:                                               ; preds = %1
  %12 = load ptr, ptr %3, align 8, !tbaa !4
  %13 = getelementptr inbounds nuw %struct.lxb_html_tree, ptr %12, i32 0, i32 4
  %14 = load ptr, ptr %13, align 8, !tbaa !44
  %15 = getelementptr inbounds nuw %struct.lexbor_array_t, ptr %14, i32 0, i32 0
  %16 = load ptr, ptr %15, align 8, !tbaa !45
  %17 = load ptr, ptr %3, align 8, !tbaa !4
  %18 = getelementptr inbounds nuw %struct.lxb_html_tree, ptr %17, i32 0, i32 4
  %19 = load ptr, ptr %18, align 8, !tbaa !44
  %20 = getelementptr inbounds nuw %struct.lexbor_array_t, ptr %19, i32 0, i32 2
  %21 = load i64, ptr %20, align 8, !tbaa !49
  %22 = sub i64 %21, 1
  %23 = getelementptr inbounds nuw ptr, ptr %16, i64 %22
  %24 = load ptr, ptr %23, align 8, !tbaa !9
  store ptr %24, ptr %2, align 8
  br label %25

25:                                               ; preds = %11, %10
  %26 = load ptr, ptr %2, align 8
  ret ptr %26
}

; Function Attrs: inlinehint nounwind uwtable
define internal zeroext i1 @lxb_html_tree_node_is(ptr noundef %0, i64 noundef %1) #3 {
  %3 = alloca ptr, align 8
  %4 = alloca i64, align 8
  store ptr %0, ptr %3, align 8, !tbaa !37
  store i64 %1, ptr %4, align 8, !tbaa !50
  %5 = load ptr, ptr %3, align 8, !tbaa !37
  %6 = getelementptr inbounds nuw %struct.lxb_dom_node, ptr %5, i32 0, i32 1
  %7 = load i64, ptr %6, align 8, !tbaa !51
  %8 = load i64, ptr %4, align 8, !tbaa !50
  %9 = icmp eq i64 %7, %8
  br i1 %9, label %10, label %15

10:                                               ; preds = %2
  %11 = load ptr, ptr %3, align 8, !tbaa !37
  %12 = getelementptr inbounds nuw %struct.lxb_dom_node, ptr %11, i32 0, i32 3
  %13 = load i64, ptr %12, align 8, !tbaa !55
  %14 = icmp eq i64 %13, 2
  br label %15

15:                                               ; preds = %10, %2
  %16 = phi i1 [ false, %2 ], [ %14, %10 ]
  ret i1 %16
}

; Function Attrs: inlinehint nounwind uwtable
define internal zeroext i1 @lxb_html_tree_insertion_mode_in_body_anything_else_closed(ptr noundef %0, ptr noundef %1) #3 {
  %3 = alloca i1, align 1
  %4 = alloca ptr, align 8
  %5 = alloca ptr, align 8
  %6 = alloca i8, align 1
  %7 = alloca ptr, align 8
  %8 = alloca i64, align 8
  %9 = alloca i32, align 4
  store ptr %0, ptr %4, align 8, !tbaa !4
  store ptr %1, ptr %5, align 8, !tbaa !9
  call void @llvm.lifetime.start.p0(i64 1, ptr %6) #5
  call void @llvm.lifetime.start.p0(i64 8, ptr %7) #5
  %10 = load ptr, ptr %4, align 8, !tbaa !4
  %11 = getelementptr inbounds nuw %struct.lxb_html_tree, ptr %10, i32 0, i32 4
  %12 = load ptr, ptr %11, align 8, !tbaa !44
  %13 = getelementptr inbounds nuw %struct.lexbor_array_t, ptr %12, i32 0, i32 0
  %14 = load ptr, ptr %13, align 8, !tbaa !45
  store ptr %14, ptr %7, align 8, !tbaa !47
  call void @llvm.lifetime.start.p0(i64 8, ptr %8) #5
  %15 = load ptr, ptr %4, align 8, !tbaa !4
  %16 = getelementptr inbounds nuw %struct.lxb_html_tree, ptr %15, i32 0, i32 4
  %17 = load ptr, ptr %16, align 8, !tbaa !44
  %18 = getelementptr inbounds nuw %struct.lexbor_array_t, ptr %17, i32 0, i32 2
  %19 = load i64, ptr %18, align 8, !tbaa !49
  store i64 %19, ptr %8, align 8, !tbaa !50
  br label %20

20:                                               ; preds = %75, %2
  %21 = load i64, ptr %8, align 8, !tbaa !50
  %22 = icmp ne i64 %21, 0
  br i1 %22, label %23, label %76

23:                                               ; preds = %20
  %24 = load i64, ptr %8, align 8, !tbaa !50
  %25 = add i64 %24, -1
  store i64 %25, ptr %8, align 8, !tbaa !50
  %26 = load ptr, ptr %7, align 8, !tbaa !47
  %27 = load i64, ptr %8, align 8, !tbaa !50
  %28 = getelementptr inbounds nuw ptr, ptr %26, i64 %27
  %29 = load ptr, ptr %28, align 8, !tbaa !37
  %30 = load ptr, ptr %5, align 8, !tbaa !9
  %31 = getelementptr inbounds nuw %struct.lxb_html_token_t, ptr %30, i32 0, i32 10
  %32 = load i64, ptr %31, align 8, !tbaa !21
  %33 = call zeroext i1 @lxb_html_tree_node_is(ptr noundef %29, i64 noundef %32)
  br i1 %33, label %34, label %55

34:                                               ; preds = %23
  %35 = load ptr, ptr %4, align 8, !tbaa !4
  %36 = load ptr, ptr %5, align 8, !tbaa !9
  %37 = getelementptr inbounds nuw %struct.lxb_html_token_t, ptr %36, i32 0, i32 10
  %38 = load i64, ptr %37, align 8, !tbaa !21
  call void @lxb_html_tree_generate_implied_end_tags(ptr noundef %35, i64 noundef %38, i64 noundef 2)
  %39 = load ptr, ptr %7, align 8, !tbaa !47
  %40 = load i64, ptr %8, align 8, !tbaa !50
  %41 = getelementptr inbounds nuw ptr, ptr %39, i64 %40
  %42 = load ptr, ptr %41, align 8, !tbaa !37
  %43 = load ptr, ptr %4, align 8, !tbaa !4
  %44 = call ptr @lxb_html_tree_current_node(ptr noundef %43)
  %45 = icmp ne ptr %42, %44
  br i1 %45, label %46, label %49

46:                                               ; preds = %34
  %47 = load ptr, ptr %4, align 8, !tbaa !4
  %48 = load ptr, ptr %5, align 8, !tbaa !9
  call void @lxb_html_tree_parse_error(ptr noundef %47, ptr noundef %48, i32 noundef 22)
  br label %49

49:                                               ; preds = %46, %34
  %50 = load ptr, ptr %4, align 8, !tbaa !4
  %51 = load ptr, ptr %7, align 8, !tbaa !47
  %52 = load i64, ptr %8, align 8, !tbaa !50
  %53 = getelementptr inbounds nuw ptr, ptr %51, i64 %52
  %54 = load ptr, ptr %53, align 8, !tbaa !37
  call void @lxb_html_tree_open_elements_pop_until_node(ptr noundef %50, ptr noundef %54, i1 noundef zeroext true)
  store i1 true, ptr %3, align 1
  store i32 1, ptr %9, align 4
  br label %77

55:                                               ; preds = %23
  %56 = load ptr, ptr %7, align 8, !tbaa !47
  %57 = load i64, ptr %8, align 8, !tbaa !50
  %58 = getelementptr inbounds nuw ptr, ptr %56, i64 %57
  %59 = load ptr, ptr %58, align 8, !tbaa !37
  %60 = getelementptr inbounds nuw %struct.lxb_dom_node, ptr %59, i32 0, i32 1
  %61 = load i64, ptr %60, align 8, !tbaa !51
  %62 = load ptr, ptr %7, align 8, !tbaa !47
  %63 = load i64, ptr %8, align 8, !tbaa !50
  %64 = getelementptr inbounds nuw ptr, ptr %62, i64 %63
  %65 = load ptr, ptr %64, align 8, !tbaa !37
  %66 = getelementptr inbounds nuw %struct.lxb_dom_node, ptr %65, i32 0, i32 3
  %67 = load i64, ptr %66, align 8, !tbaa !55
  %68 = call zeroext i1 @lxb_html_tag_is_category(i64 noundef %61, i64 noundef %67, i32 noundef 2)
  %69 = zext i1 %68 to i8
  store i8 %69, ptr %6, align 1, !tbaa !38
  %70 = load i8, ptr %6, align 1, !tbaa !38, !range !29, !noundef !30
  %71 = trunc i8 %70 to i1
  br i1 %71, label %72, label %75

72:                                               ; preds = %55
  %73 = load ptr, ptr %4, align 8, !tbaa !4
  %74 = load ptr, ptr %5, align 8, !tbaa !9
  call void @lxb_html_tree_parse_error(ptr noundef %73, ptr noundef %74, i32 noundef 1)
  store i1 true, ptr %3, align 1
  store i32 1, ptr %9, align 4
  br label %77

75:                                               ; preds = %55
  br label %20

76:                                               ; preds = %20
  store i1 true, ptr %3, align 1
  store i32 1, ptr %9, align 4
  br label %77

77:                                               ; preds = %76, %72, %49
  call void @llvm.lifetime.end.p0(i64 8, ptr %8) #5
  call void @llvm.lifetime.end.p0(i64 8, ptr %7) #5
  call void @llvm.lifetime.end.p0(i64 1, ptr %6) #5
  %78 = load i1, ptr %3, align 1
  ret i1 %78
}