; Function Attrs: inlinehint nounwind uwtable
define internal fastcc void @lxb_html_tree_insertion_mode_in_body_anything_else_closed(ptr noundef %0, ptr noundef %1) unnamed_addr #3 {
  %3 = getelementptr inbounds nuw i8, ptr %0, i64 32
  %4 = load ptr, ptr %3, align 8, !tbaa !33
  %5 = load ptr, ptr %4, align 8, !tbaa !36
  %6 = getelementptr inbounds nuw i8, ptr %4, i64 16
  %7 = load i64, ptr %6, align 8, !tbaa !34
  %.not32 = icmp eq i64 %7, 0
  br i1 %.not32, label %.loopexit, label %.lr.ph

.lr.ph:                                           ; preds = %2
  %8 = getelementptr inbounds nuw i8, ptr %1, i64 80
  %9 = load i64, ptr %8, align 8, !tbaa !18
  br label %10

10:                                               ; preds = %.lr.ph, %lxb_html_tag_is_category.exit.backedge
  %.033 = phi i64 [ %7, %.lr.ph ], [ %11, %lxb_html_tag_is_category.exit.backedge ]
  %11 = add i64 %.033, -1
  %12 = getelementptr inbounds nuw ptr, ptr %5, i64 %11
  %13 = load ptr, ptr %12, align 8, !tbaa !44
  %14 = getelementptr inbounds nuw i8, ptr %13, i64 8
  %15 = load i64, ptr %14, align 8, !tbaa !38
  %16 = icmp eq i64 %15, %9
  %17 = getelementptr inbounds nuw i8, ptr %13, i64 24
  %18 = load i64, ptr %17, align 8, !tbaa !42
  %19 = icmp eq i64 %18, 2
  %or.cond = select i1 %16, i1 %19, i1 false
  br i1 %or.cond, label %20, label %lxb_html_tree_node_is.exit.thread

20:                                               ; preds = %10
  %21 = getelementptr inbounds nuw ptr, ptr %5, i64 %11
  tail call void @lxb_html_tree_generate_implied_end_tags(ptr noundef %0, i64 noundef %9, i64 noundef 2) #6
  %22 = load ptr, ptr %21, align 8, !tbaa !44
  %.val = load ptr, ptr %3, align 8, !tbaa !33
  %23 = getelementptr inbounds nuw i8, ptr %.val, i64 16
  %24 = load i64, ptr %23, align 8, !tbaa !34
  %25 = icmp eq i64 %24, 0
  br i1 %25, label %lxb_html_tree_current_node.exit, label %26

26:                                               ; preds = %20
  %27 = load ptr, ptr %.val, align 8, !tbaa !36
  %28 = getelementptr ptr, ptr %27, i64 %24
  %29 = getelementptr i8, ptr %28, i64 -8
  %30 = load ptr, ptr %29, align 8, !tbaa !37
  br label %lxb_html_tree_current_node.exit

lxb_html_tree_current_node.exit:                  ; preds = %20, %26
  %.0.i = phi ptr [ %30, %26 ], [ null, %20 ]
  %.not25 = icmp eq ptr %22, %.0.i
  br i1 %.not25, label %32, label %31

31:                                               ; preds = %lxb_html_tree_current_node.exit
  tail call void @lxb_html_tree_parse_error(ptr noundef nonnull %0, ptr noundef nonnull %1, i32 noundef 22) #6
  %.pre36 = load ptr, ptr %21, align 8, !tbaa !44
  br label %32

32:                                               ; preds = %31, %lxb_html_tree_current_node.exit
  %33 = phi ptr [ %.pre36, %31 ], [ %22, %lxb_html_tree_current_node.exit ]
  tail call void @lxb_html_tree_open_elements_pop_until_node(ptr noundef nonnull %0, ptr noundef %33, i1 noundef zeroext true) #6
  br label %.loopexit

lxb_html_tree_node_is.exit.thread:                ; preds = %10
  %34 = icmp ult i64 %15, 196
  %35 = icmp ult i64 %18, 8
  %or.cond.i = and i1 %34, %35
  br i1 %or.cond.i, label %36, label %lxb_html_tag_is_category.exit.backedge

36:                                               ; preds = %lxb_html_tree_node_is.exit.thread
  %37 = getelementptr inbounds nuw [196 x [8 x i32]], ptr @lxb_html_tag_res_cats, i64 0, i64 %15, i64 %18
  %38 = load i32, ptr %37, align 4, !tbaa !45
  %39 = and i32 %38, 2
  %.not27 = icmp eq i32 %39, 0
  br i1 %.not27, label %lxb_html_tag_is_category.exit.backedge, label %40

lxb_html_tag_is_category.exit.backedge:           ; preds = %36, %lxb_html_tree_node_is.exit.thread
  %.not = icmp eq i64 %11, 0
  br i1 %.not, label %.loopexit, label %10

40:                                               ; preds = %36
  tail call void @lxb_html_tree_parse_error(ptr noundef %0, ptr noundef %1, i32 noundef 1) #6
  br label %.loopexit

.loopexit:                                        ; preds = %lxb_html_tag_is_category.exit.backedge, %2, %40, %32
  ret void
}